target datalayout = "e-m:e-p270:32:32-p271:32:32-p272:64:64-i64:64-i128:128-f80:128-n8:16:32:64-S128"
target triple = "x86_64-pc-linux-gnu"

%struct.OutputStream = type { ptr, i32, ptr, i32, ptr, ptr, ptr, i32, i32, i32, %struct.AVRational, %struct.KeyframeForceCtx, ptr, ptr, ptr, ptr, ptr, i64, i32, %struct.EncStats, %struct.EncStats, i32 }
%struct.AVRational = type { i32, i32 }
%struct.KeyframeForceCtx = type { i32, i64, ptr, i32, i32, ptr, [5 x double], i32 }
%struct.EncStats = type { ptr, i32, ptr, %union.pthread_mutex_t, i32 }
%union.pthread_mutex_t = type { %struct.__pthread_mutex_s }
%struct.__pthread_mutex_s = type { i32, i32, i32, i32, i32, i16, i16, %struct.__pthread_internal_list }
%struct.__pthread_internal_list = type { ptr, ptr }
%struct.OutputFile = type { ptr, i32, ptr, ptr, i32, i64, i64, i32 }

@output_files = global ptr null, align 8
@nb_output_files = global i32 0, align 4

; Function Attrs: nounwind uwtable
define ptr @ost_iter(ptr noundef %0) #0 {
  %2 = alloca ptr, align 8
  %3 = alloca ptr, align 8
  %4 = alloca i32, align 4
  %5 = alloca i32, align 4
  %6 = alloca ptr, align 8
  %7 = alloca i32, align 4
  store ptr %0, ptr %3, align 8, !tbaa !20
  call void @llvm.lifetime.start.p0(i64 4, ptr %4) #12
  %8 = load ptr, ptr %3, align 8, !tbaa !20
  %9 = icmp ne ptr %8, null
  br i1 %9, label %10, label %16

10:                                               ; preds = %1
  %11 = load ptr, ptr %3, align 8, !tbaa !20
  %12 = getelementptr inbounds nuw %struct.OutputStream, ptr %11, i32 0, i32 2
  %13 = load ptr, ptr %12, align 8, !tbaa !22
  %14 = getelementptr inbounds nuw %struct.OutputFile, ptr %13, i32 0, i32 1
  %15 = load i32, ptr %14, align 8, !tbaa !41
  br label %17

16:                                               ; preds = %1
  br label %17

17:                                               ; preds = %16, %10
  %18 = phi i32 [ %15, %10 ], [ 0, %16 ]
  store i32 %18, ptr %4, align 4, !tbaa !4
  call void @llvm.lifetime.start.p0(i64 4, ptr %5) #12
  %19 = load ptr, ptr %3, align 8, !tbaa !20
  %20 = icmp ne ptr %19, null
  br i1 %20, label %21, label %26

21:                                               ; preds = %17
  %22 = load ptr, ptr %3, align 8, !tbaa !20
  %23 = getelementptr inbounds nuw %struct.OutputStream, ptr %22, i32 0, i32 3
  %24 = load i32, ptr %23, align 8, !tbaa !45
  %25 = add nsw i32 %24, 1
  br label %27

26:                                               ; preds = %17
  br label %27

27:                                               ; preds = %26, %21
  %28 = phi i32 [ %25, %21 ], [ 0, %26 ]
  store i32 %28, ptr %5, align 4, !tbaa !4
  br label %29

29:                                               ; preds = %56, %27
  %30 = load i32, ptr %4, align 4, !tbaa !4
  %31 = load i32, ptr @nb_output_files, align 4, !tbaa !4
  %32 = icmp slt i32 %30, %31
  br i1 %32, label %33, label %59

33:                                               ; preds = %29
  call void @llvm.lifetime.start.p0(i64 8, ptr %6) #12
  %34 = load ptr, ptr @output_files, align 8, !tbaa !46
  %35 = load i32, ptr %4, align 4, !tbaa !4
  %36 = sext i32 %35 to i64
  %37 = getelementptr inbounds ptr, ptr %34, i64 %36
  %38 = load ptr, ptr %37, align 8, !tbaa !48
  store ptr %38, ptr %6, align 8, !tbaa !48
  %39 = load i32, ptr %5, align 4, !tbaa !4
  %40 = load ptr, ptr %6, align 8, !tbaa !48
  %41 = getelementptr inbounds nuw %struct.OutputFile, ptr %40, i32 0, i32 4
  %42 = load i32, ptr %41, align 8, !tbaa !49
  %43 = icmp slt i32 %39, %42
  br i1 %43, label %44, label %52

44:                                               ; preds = %33
  %45 = load ptr, ptr %6, align 8, !tbaa !48
  %46 = getelementptr inbounds nuw %struct.OutputFile, ptr %45, i32 0, i32 3
  %47 = load ptr, ptr %46, align 8, !tbaa !50
  %48 = load i32, ptr %5, align 4, !tbaa !4
  %49 = sext i32 %48 to i64
  %50 = getelementptr inbounds ptr, ptr %47, i64 %49
  %51 = load ptr, ptr %50, align 8, !tbaa !20
  store ptr %51, ptr %2, align 8
  store i32 1, ptr %7, align 4
  br label %53

52:                                               ; preds = %33
  store i32 0, ptr %5, align 4, !tbaa !4
  store i32 0, ptr %7, align 4
  br label %53

53:                                               ; preds = %52, %44
  call void @llvm.lifetime.end.p0(i64 8, ptr %6) #12
  %54 = load i32, ptr %7, align 4
  switch i32 %54, label %60 [
    i32 0, label %55
  ]

55:                                               ; preds = %53
  br label %56

56:                                               ; preds = %55
  %57 = load i32, ptr %4, align 4, !tbaa !4
  %58 = add nsw i32 %57, 1
  store i32 %58, ptr %4, align 4, !tbaa !4
  br label %29, !llvm.loop !51

59:                                               ; preds = %29
  store ptr null, ptr %2, align 8
  store i32 1, ptr %7, align 4
  br label %60

60:                                               ; preds = %59, %53
  call void @llvm.lifetime.end.p0(i64 4, ptr %5) #12
  call void @llvm.lifetime.end.p0(i64 4, ptr %4) #12
  %61 = load ptr, ptr %2, align 8
  ret ptr %61
}